ARM GAS  /tmp/ccsLfZzh.s 			page 1


 GNU assembler version 2.27 (arm-none-eabi)
	 using BFD version (2.27-9ubuntu1+9) 2.27.
 options passed	: -I -I -I -I -I -EL -mcpu=cortex-m7 -mfloat-abi=hard -mfpu=fpv5-sp-d16 -meabi=5 -aghlms=sys/_sbrk.lst 
 input file    	: /tmp/ccsLfZzh.s
 output file   	: sys/_sbrk.o
 target        	: arm-none-eabi
 time stamp    	: 2020-03-25T15:25:01.000-0700

ARM GAS  /tmp/ccsLfZzh.s 			page 2


   1              		.cpu cortex-m7
   2              		.eabi_attribute 27, 1
   3              		.eabi_attribute 28, 1
   4              		.eabi_attribute 20, 1
   5              		.eabi_attribute 21, 1
   6              		.eabi_attribute 23, 3
   7              		.eabi_attribute 24, 1
   8              		.eabi_attribute 25, 1
   9              		.eabi_attribute 26, 1
  10              		.eabi_attribute 30, 6
  11              		.eabi_attribute 34, 1
  12              		.eabi_attribute 18, 4
  13              		.file	"_sbrk.c"
  14              		.text
  15              	.Ltext0:
  16              		.cfi_sections	.debug_frame
  17              		.section	.bss.current_heap_end.5354,"aw",%nobits
  18              		.align	2
  19              		.type	current_heap_end.5354, %object
  20              		.size	current_heap_end.5354, 4
  21              	current_heap_end.5354:
  22 0000 00000000 		.space	4
  23              		.section	.text._sbrk,"ax",%progbits
  24              		.align	1
  25              		.global	_sbrk
  26              		.syntax unified
  27              		.thumb
  28              		.thumb_func
  29              		.fpu fpv5-sp-d16
  30              		.type	_sbrk, %function
  31              	_sbrk:
  32              	.LFB0:
  33              		.file 1 "sys/_sbrk.c"
   1:sys/_sbrk.c   **** //
   2:sys/_sbrk.c   **** // This file is part of the GNU ARM Eclipse Plug-in
   3:sys/_sbrk.c   **** // Copyright (c) 2013 Liviu Ionescu
   4:sys/_sbrk.c   **** //
   5:sys/_sbrk.c   **** 
   6:sys/_sbrk.c   **** #include <sys/types.h>
   7:sys/_sbrk.c   **** #include <errno.h>
   8:sys/_sbrk.c   **** 
   9:sys/_sbrk.c   **** caddr_t
  10:sys/_sbrk.c   **** _sbrk(int incr)
  11:sys/_sbrk.c   **** {
  34              		.loc 1 11 0
  35              		.cfi_startproc
  36              		@ args = 0, pretend = 0, frame = 16
  37              		@ frame_needed = 1, uses_anonymous_args = 0
  38 0000 80B5     		push	{r7, lr}
  39              		.cfi_def_cfa_offset 8
  40              		.cfi_offset 7, -8
  41              		.cfi_offset 14, -4
  42 0002 84B0     		sub	sp, sp, #16
  43              		.cfi_def_cfa_offset 24
  44 0004 00AF     		add	r7, sp, #0
  45              		.cfi_def_cfa_register 7
  46 0006 7860     		str	r0, [r7, #4]
ARM GAS  /tmp/ccsLfZzh.s 			page 3


  12:sys/_sbrk.c   ****     extern char _end; /* Defined by the linker. */
  13:sys/_sbrk.c   ****     //extern char _Heap_Limit; /* Defined by the linker. */
  14:sys/_sbrk.c   ****     static char* current_heap_end;
  15:sys/_sbrk.c   ****     char* current_block_address;
  16:sys/_sbrk.c   **** 
  17:sys/_sbrk.c   ****     if (current_heap_end == 0)
  47              		.loc 1 17 0
  48 0008 144B     		ldr	r3, .L5
  49 000a 1B68     		ldr	r3, [r3]
  50 000c 002B     		cmp	r3, #0
  51 000e 02D1     		bne	.L2
  18:sys/_sbrk.c   ****         current_heap_end = &_end;
  52              		.loc 1 18 0
  53 0010 124B     		ldr	r3, .L5
  54 0012 134A     		ldr	r2, .L5+4
  55 0014 1A60     		str	r2, [r3]
  56              	.L2:
  19:sys/_sbrk.c   **** 
  20:sys/_sbrk.c   ****     current_block_address = current_heap_end;
  57              		.loc 1 20 0
  58 0016 114B     		ldr	r3, .L5
  59 0018 1B68     		ldr	r3, [r3]
  60 001a FB60     		str	r3, [r7, #12]
  21:sys/_sbrk.c   **** 
  22:sys/_sbrk.c   ****     // Need to align heap to word boundary, else will get
  23:sys/_sbrk.c   ****     // hard faults on Cortex-M0. So we assume that heap starts on
  24:sys/_sbrk.c   ****     // word boundary, hence make sure we always add a multiple of
  25:sys/_sbrk.c   ****     // 4 to it.
  26:sys/_sbrk.c   ****     incr = (incr + 3) & (~3); // align value to 4
  61              		.loc 1 26 0
  62 001c 7B68     		ldr	r3, [r7, #4]
  63 001e 0333     		adds	r3, r3, #3
  64 0020 23F00303 		bic	r3, r3, #3
  65 0024 7B60     		str	r3, [r7, #4]
  27:sys/_sbrk.c   ****     if (current_heap_end + incr > &_end + HEAP_SIZE)
  66              		.loc 1 27 0
  67 0026 0D4B     		ldr	r3, .L5
  68 0028 1A68     		ldr	r2, [r3]
  69 002a 7B68     		ldr	r3, [r7, #4]
  70 002c 1344     		add	r3, r3, r2
  71 002e 0D4A     		ldr	r2, .L5+8
  72 0030 9342     		cmp	r3, r2
  73 0032 07D9     		bls	.L3
  28:sys/_sbrk.c   ****     {
  29:sys/_sbrk.c   ****         // Some of the libstdc++-v3 tests rely upon detecting
  30:sys/_sbrk.c   ****         // out of memory errors, so do not abort here.
  31:sys/_sbrk.c   **** #if 0
  32:sys/_sbrk.c   ****         extern void abort (void);
  33:sys/_sbrk.c   **** 
  34:sys/_sbrk.c   ****         _write (1, "_sbrk: Heap and stack collision\n", 32);
  35:sys/_sbrk.c   **** 
  36:sys/_sbrk.c   ****         abort ();
  37:sys/_sbrk.c   **** #else
  38:sys/_sbrk.c   ****         // Heap has overflowed
  39:sys/_sbrk.c   ****         errno = ENOMEM;
  74              		.loc 1 39 0
  75 0034 FFF7FEFF 		bl	__errno
ARM GAS  /tmp/ccsLfZzh.s 			page 4


  76 0038 0246     		mov	r2, r0
  77 003a 0C23     		movs	r3, #12
  78 003c 1360     		str	r3, [r2]
  40:sys/_sbrk.c   ****         return (caddr_t) - 1;
  79              		.loc 1 40 0
  80 003e 4FF0FF33 		mov	r3, #-1
  81 0042 06E0     		b	.L4
  82              	.L3:
  41:sys/_sbrk.c   **** #endif
  42:sys/_sbrk.c   ****     }
  43:sys/_sbrk.c   **** 
  44:sys/_sbrk.c   ****     current_heap_end += incr;
  83              		.loc 1 44 0
  84 0044 054B     		ldr	r3, .L5
  85 0046 1A68     		ldr	r2, [r3]
  86 0048 7B68     		ldr	r3, [r7, #4]
  87 004a 1344     		add	r3, r3, r2
  88 004c 034A     		ldr	r2, .L5
  89 004e 1360     		str	r3, [r2]
  45:sys/_sbrk.c   **** 
  46:sys/_sbrk.c   ****     return (caddr_t) current_block_address;
  90              		.loc 1 46 0
  91 0050 FB68     		ldr	r3, [r7, #12]
  92              	.L4:
  47:sys/_sbrk.c   **** }
  93              		.loc 1 47 0
  94 0052 1846     		mov	r0, r3
  95 0054 1037     		adds	r7, r7, #16
  96              		.cfi_def_cfa_offset 8
  97 0056 BD46     		mov	sp, r7
  98              		.cfi_def_cfa_register 13
  99              		@ sp needed
 100 0058 80BD     		pop	{r7, pc}
 101              	.L6:
 102 005a 00BF     		.align	2
 103              	.L5:
 104 005c 00000000 		.word	current_heap_end.5354
 105 0060 00000000 		.word	_end
 106 0064 00040000 		.word	_end+1024
 107              		.cfi_endproc
 108              	.LFE0:
 109              		.size	_sbrk, .-_sbrk
 110              		.text
 111              	.Letext0:
 112              		.file 2 "/usr/include/newlib/sys/lock.h"
 113              		.file 3 "/usr/include/newlib/sys/_types.h"
 114              		.file 4 "/usr/lib/gcc/arm-none-eabi/6.3.1/include/stddef.h"
 115              		.file 5 "/usr/include/newlib/sys/types.h"
 116              		.file 6 "/usr/include/newlib/sys/reent.h"
 117              		.file 7 "/usr/include/newlib/sys/errno.h"