ARM GAS  /tmp/ccqG68vd.s 			page 1


 GNU assembler version 2.27 (arm-none-eabi)
	 using BFD version (2.27-9ubuntu1+9) 2.27.
 options passed	: -I -I -I -I -I -EL -mcpu=cortex-m7 -mfloat-abi=hard -mfpu=fpv5-sp-d16 -meabi=5 -aghlms=sys/stubs.lst 
 input file    	: /tmp/ccqG68vd.s
 output file   	: sys/stubs.o
 target        	: arm-none-eabi
 time stamp    	: 2020-03-25T15:25:01.000-0700

ARM GAS  /tmp/ccqG68vd.s 			page 2


   1              		.cpu cortex-m7
   2              		.eabi_attribute 27, 1
   3              		.eabi_attribute 28, 1
   4              		.eabi_attribute 20, 1
   5              		.eabi_attribute 21, 1
   6              		.eabi_attribute 23, 3
   7              		.eabi_attribute 24, 1
   8              		.eabi_attribute 25, 1
   9              		.eabi_attribute 26, 1
  10              		.eabi_attribute 30, 6
  11              		.eabi_attribute 34, 1
  12              		.eabi_attribute 18, 4
  13              		.file	"stubs.c"
  14              		.text
  15              	.Ltext0:
  16              		.cfi_sections	.debug_frame
  17              		.section	.text._write,"ax",%progbits
  18              		.align	1
  19              		.global	_write
  20              		.syntax unified
  21              		.thumb
  22              		.thumb_func
  23              		.fpu fpv5-sp-d16
  24              		.type	_write, %function
  25              	_write:
  26              	.LFB0:
  27              		.file 1 "sys/stubs.c"
   1:sys/stubs.c   **** 
   2:sys/stubs.c   **** #pragma GCC diagnostic ignored "-Wunused-parameter"
   3:sys/stubs.c   **** 
   4:sys/stubs.c   **** extern int errno;
   5:sys/stubs.c   **** extern int __io_putchar(int ch) __attribute__((weak));
   6:sys/stubs.c   **** extern int __io_getchar(void) __attribute__((weak));
   7:sys/stubs.c   **** 
   8:sys/stubs.c   **** int _write(int fd, const void *buffer, unsigned int count)
   9:sys/stubs.c   **** {
  28              		.loc 1 9 0
  29              		.cfi_startproc
  30              		@ args = 0, pretend = 0, frame = 24
  31              		@ frame_needed = 1, uses_anonymous_args = 0
  32 0000 80B5     		push	{r7, lr}
  33              		.cfi_def_cfa_offset 8
  34              		.cfi_offset 7, -8
  35              		.cfi_offset 14, -4
  36 0002 86B0     		sub	sp, sp, #24
  37              		.cfi_def_cfa_offset 32
  38 0004 00AF     		add	r7, sp, #0
  39              		.cfi_def_cfa_register 7
  40 0006 F860     		str	r0, [r7, #12]
  41 0008 B960     		str	r1, [r7, #8]
  42 000a 7A60     		str	r2, [r7, #4]
  10:sys/stubs.c   ****     unsigned int i;
  11:sys/stubs.c   **** 
  12:sys/stubs.c   ****     for (i = 0; i < count; i++) {
  43              		.loc 1 12 0
  44 000c 0023     		movs	r3, #0
  45 000e 7B61     		str	r3, [r7, #20]
ARM GAS  /tmp/ccqG68vd.s 			page 3


  46 0010 09E0     		b	.L2
  47              	.L3:
  13:sys/stubs.c   ****         __io_putchar(((char *)buffer)[i]);
  48              		.loc 1 13 0 discriminator 3
  49 0012 BA68     		ldr	r2, [r7, #8]
  50 0014 7B69     		ldr	r3, [r7, #20]
  51 0016 1344     		add	r3, r3, r2
  52 0018 1B78     		ldrb	r3, [r3]	@ zero_extendqisi2
  53 001a 1846     		mov	r0, r3
  54 001c FFF7FEFF 		bl	__io_putchar
  12:sys/stubs.c   ****         __io_putchar(((char *)buffer)[i]);
  55              		.loc 1 12 0 discriminator 3
  56 0020 7B69     		ldr	r3, [r7, #20]
  57 0022 0133     		adds	r3, r3, #1
  58 0024 7B61     		str	r3, [r7, #20]
  59              	.L2:
  12:sys/stubs.c   ****         __io_putchar(((char *)buffer)[i]);
  60              		.loc 1 12 0 is_stmt 0 discriminator 1
  61 0026 7A69     		ldr	r2, [r7, #20]
  62 0028 7B68     		ldr	r3, [r7, #4]
  63 002a 9A42     		cmp	r2, r3
  64 002c F1D3     		bcc	.L3
  14:sys/stubs.c   ****     }
  15:sys/stubs.c   **** 
  16:sys/stubs.c   ****     return count;
  65              		.loc 1 16 0 is_stmt 1
  66 002e 7B68     		ldr	r3, [r7, #4]
  17:sys/stubs.c   **** }
  67              		.loc 1 17 0
  68 0030 1846     		mov	r0, r3
  69 0032 1837     		adds	r7, r7, #24
  70              		.cfi_def_cfa_offset 8
  71 0034 BD46     		mov	sp, r7
  72              		.cfi_def_cfa_register 13
  73              		@ sp needed
  74 0036 80BD     		pop	{r7, pc}
  75              		.cfi_endproc
  76              	.LFE0:
  77              		.size	_write, .-_write
  78              		.section	.text._read,"ax",%progbits
  79              		.align	1
  80              		.global	_read
  81              		.syntax unified
  82              		.thumb
  83              		.thumb_func
  84              		.fpu fpv5-sp-d16
  85              		.type	_read, %function
  86              	_read:
  87              	.LFB1:
  18:sys/stubs.c   **** 
  19:sys/stubs.c   **** int _read(int fd, void *buffer, unsigned int count)
  20:sys/stubs.c   **** {
  88              		.loc 1 20 0
  89              		.cfi_startproc
  90              		@ args = 0, pretend = 0, frame = 24
  91              		@ frame_needed = 1, uses_anonymous_args = 0
  92 0000 90B5     		push	{r4, r7, lr}
ARM GAS  /tmp/ccqG68vd.s 			page 4


  93              		.cfi_def_cfa_offset 12
  94              		.cfi_offset 4, -12
  95              		.cfi_offset 7, -8
  96              		.cfi_offset 14, -4
  97 0002 87B0     		sub	sp, sp, #28
  98              		.cfi_def_cfa_offset 40
  99 0004 00AF     		add	r7, sp, #0
 100              		.cfi_def_cfa_register 7
 101 0006 F860     		str	r0, [r7, #12]
 102 0008 B960     		str	r1, [r7, #8]
 103 000a 7A60     		str	r2, [r7, #4]
  21:sys/stubs.c   ****     unsigned int i;
  22:sys/stubs.c   **** 
  23:sys/stubs.c   ****     for (i = 0; i < count; i++) {
 104              		.loc 1 23 0
 105 000c 0023     		movs	r3, #0
 106 000e 7B61     		str	r3, [r7, #20]
 107 0010 0AE0     		b	.L6
 108              	.L7:
  24:sys/stubs.c   ****         ((char *)buffer)[i] = __io_getchar();
 109              		.loc 1 24 0 discriminator 3
 110 0012 BA68     		ldr	r2, [r7, #8]
 111 0014 7B69     		ldr	r3, [r7, #20]
 112 0016 D418     		adds	r4, r2, r3
 113 0018 FFF7FEFF 		bl	__io_getchar
 114 001c 0346     		mov	r3, r0
 115 001e DBB2     		uxtb	r3, r3
 116 0020 2370     		strb	r3, [r4]
  23:sys/stubs.c   ****         ((char *)buffer)[i] = __io_getchar();
 117              		.loc 1 23 0 discriminator 3
 118 0022 7B69     		ldr	r3, [r7, #20]
 119 0024 0133     		adds	r3, r3, #1
 120 0026 7B61     		str	r3, [r7, #20]
 121              	.L6:
  23:sys/stubs.c   ****         ((char *)buffer)[i] = __io_getchar();
 122              		.loc 1 23 0 is_stmt 0 discriminator 1
 123 0028 7A69     		ldr	r2, [r7, #20]
 124 002a 7B68     		ldr	r3, [r7, #4]
 125 002c 9A42     		cmp	r2, r3
 126 002e F0D3     		bcc	.L7
  25:sys/stubs.c   ****     }
  26:sys/stubs.c   **** 
  27:sys/stubs.c   ****     return count;
 127              		.loc 1 27 0 is_stmt 1
 128 0030 7B68     		ldr	r3, [r7, #4]
  28:sys/stubs.c   **** }
 129              		.loc 1 28 0
 130 0032 1846     		mov	r0, r3
 131 0034 1C37     		adds	r7, r7, #28
 132              		.cfi_def_cfa_offset 12
 133 0036 BD46     		mov	sp, r7
 134              		.cfi_def_cfa_register 13
 135              		@ sp needed
 136 0038 90BD     		pop	{r4, r7, pc}
 137              		.cfi_endproc
 138              	.LFE1:
 139              		.size	_read, .-_read
ARM GAS  /tmp/ccqG68vd.s 			page 5


 140              		.section	.text._close,"ax",%progbits
 141              		.align	1
 142              		.global	_close
 143              		.syntax unified
 144              		.thumb
 145              		.thumb_func
 146              		.fpu fpv5-sp-d16
 147              		.type	_close, %function
 148              	_close:
 149              	.LFB2:
  29:sys/stubs.c   **** 
  30:sys/stubs.c   **** int _close(int fd)
  31:sys/stubs.c   **** {
 150              		.loc 1 31 0
 151              		.cfi_startproc
 152              		@ args = 0, pretend = 0, frame = 8
 153              		@ frame_needed = 1, uses_anonymous_args = 0
 154              		@ link register save eliminated.
 155 0000 80B4     		push	{r7}
 156              		.cfi_def_cfa_offset 4
 157              		.cfi_offset 7, -4
 158 0002 83B0     		sub	sp, sp, #12
 159              		.cfi_def_cfa_offset 16
 160 0004 00AF     		add	r7, sp, #0
 161              		.cfi_def_cfa_register 7
 162 0006 7860     		str	r0, [r7, #4]
  32:sys/stubs.c   ****     return -1;
 163              		.loc 1 32 0
 164 0008 4FF0FF33 		mov	r3, #-1
  33:sys/stubs.c   **** }
 165              		.loc 1 33 0
 166 000c 1846     		mov	r0, r3
 167 000e 0C37     		adds	r7, r7, #12
 168              		.cfi_def_cfa_offset 4
 169 0010 BD46     		mov	sp, r7
 170              		.cfi_def_cfa_register 13
 171              		@ sp needed
 172 0012 5DF8047B 		ldr	r7, [sp], #4
 173              		.cfi_restore 7
 174              		.cfi_def_cfa_offset 0
 175 0016 7047     		bx	lr
 176              		.cfi_endproc
 177              	.LFE2:
 178              		.size	_close, .-_close
 179              		.section	.text._fstat,"ax",%progbits
 180              		.align	1
 181              		.global	_fstat
 182              		.syntax unified
 183              		.thumb
 184              		.thumb_func
 185              		.fpu fpv5-sp-d16
 186              		.type	_fstat, %function
 187              	_fstat:
 188              	.LFB3:
  34:sys/stubs.c   **** 
  35:sys/stubs.c   **** int _fstat(int fd, void *buffer)
  36:sys/stubs.c   **** {
ARM GAS  /tmp/ccqG68vd.s 			page 6


 189              		.loc 1 36 0
 190              		.cfi_startproc
 191              		@ args = 0, pretend = 0, frame = 8
 192              		@ frame_needed = 1, uses_anonymous_args = 0
 193              		@ link register save eliminated.
 194 0000 80B4     		push	{r7}
 195              		.cfi_def_cfa_offset 4
 196              		.cfi_offset 7, -4
 197 0002 83B0     		sub	sp, sp, #12
 198              		.cfi_def_cfa_offset 16
 199 0004 00AF     		add	r7, sp, #0
 200              		.cfi_def_cfa_register 7
 201 0006 7860     		str	r0, [r7, #4]
 202 0008 3960     		str	r1, [r7]
  37:sys/stubs.c   ****     return -1;
 203              		.loc 1 37 0
 204 000a 4FF0FF33 		mov	r3, #-1
  38:sys/stubs.c   **** }
 205              		.loc 1 38 0
 206 000e 1846     		mov	r0, r3
 207 0010 0C37     		adds	r7, r7, #12
 208              		.cfi_def_cfa_offset 4
 209 0012 BD46     		mov	sp, r7
 210              		.cfi_def_cfa_register 13
 211              		@ sp needed
 212 0014 5DF8047B 		ldr	r7, [sp], #4
 213              		.cfi_restore 7
 214              		.cfi_def_cfa_offset 0
 215 0018 7047     		bx	lr
 216              		.cfi_endproc
 217              	.LFE3:
 218              		.size	_fstat, .-_fstat
 219              		.section	.text._isatty,"ax",%progbits
 220              		.align	1
 221              		.global	_isatty
 222              		.syntax unified
 223              		.thumb
 224              		.thumb_func
 225              		.fpu fpv5-sp-d16
 226              		.type	_isatty, %function
 227              	_isatty:
 228              	.LFB4:
  39:sys/stubs.c   **** 
  40:sys/stubs.c   **** int _isatty(int fd)
  41:sys/stubs.c   **** {
 229              		.loc 1 41 0
 230              		.cfi_startproc
 231              		@ args = 0, pretend = 0, frame = 8
 232              		@ frame_needed = 1, uses_anonymous_args = 0
 233              		@ link register save eliminated.
 234 0000 80B4     		push	{r7}
 235              		.cfi_def_cfa_offset 4
 236              		.cfi_offset 7, -4
 237 0002 83B0     		sub	sp, sp, #12
 238              		.cfi_def_cfa_offset 16
 239 0004 00AF     		add	r7, sp, #0
 240              		.cfi_def_cfa_register 7
ARM GAS  /tmp/ccqG68vd.s 			page 7


 241 0006 7860     		str	r0, [r7, #4]
  42:sys/stubs.c   ****     return -1;
 242              		.loc 1 42 0
 243 0008 4FF0FF33 		mov	r3, #-1
  43:sys/stubs.c   **** }
 244              		.loc 1 43 0
 245 000c 1846     		mov	r0, r3
 246 000e 0C37     		adds	r7, r7, #12
 247              		.cfi_def_cfa_offset 4
 248 0010 BD46     		mov	sp, r7
 249              		.cfi_def_cfa_register 13
 250              		@ sp needed
 251 0012 5DF8047B 		ldr	r7, [sp], #4
 252              		.cfi_restore 7
 253              		.cfi_def_cfa_offset 0
 254 0016 7047     		bx	lr
 255              		.cfi_endproc
 256              	.LFE4:
 257              		.size	_isatty, .-_isatty
 258              		.section	.text._lseek,"ax",%progbits
 259              		.align	1
 260              		.global	_lseek
 261              		.syntax unified
 262              		.thumb
 263              		.thumb_func
 264              		.fpu fpv5-sp-d16
 265              		.type	_lseek, %function
 266              	_lseek:
 267              	.LFB5:
  44:sys/stubs.c   **** 
  45:sys/stubs.c   **** long _lseek(int fd, long offset, int origin)
  46:sys/stubs.c   **** {
 268              		.loc 1 46 0
 269              		.cfi_startproc
 270              		@ args = 0, pretend = 0, frame = 16
 271              		@ frame_needed = 1, uses_anonymous_args = 0
 272              		@ link register save eliminated.
 273 0000 80B4     		push	{r7}
 274              		.cfi_def_cfa_offset 4
 275              		.cfi_offset 7, -4
 276 0002 85B0     		sub	sp, sp, #20
 277              		.cfi_def_cfa_offset 24
 278 0004 00AF     		add	r7, sp, #0
 279              		.cfi_def_cfa_register 7
 280 0006 F860     		str	r0, [r7, #12]
 281 0008 B960     		str	r1, [r7, #8]
 282 000a 7A60     		str	r2, [r7, #4]
  47:sys/stubs.c   ****     return -1;
 283              		.loc 1 47 0
 284 000c 4FF0FF33 		mov	r3, #-1
  48:sys/stubs.c   **** }
 285              		.loc 1 48 0
 286 0010 1846     		mov	r0, r3
 287 0012 1437     		adds	r7, r7, #20
 288              		.cfi_def_cfa_offset 4
 289 0014 BD46     		mov	sp, r7
 290              		.cfi_def_cfa_register 13
ARM GAS  /tmp/ccqG68vd.s 			page 8


 291              		@ sp needed
 292 0016 5DF8047B 		ldr	r7, [sp], #4
 293              		.cfi_restore 7
 294              		.cfi_def_cfa_offset 0
 295 001a 7047     		bx	lr
 296              		.cfi_endproc
 297              	.LFE5:
 298              		.size	_lseek, .-_lseek
 299              		.section	.text._exit,"ax",%progbits
 300              		.align	1
 301              		.global	_exit
 302              		.syntax unified
 303              		.thumb
 304              		.thumb_func
 305              		.fpu fpv5-sp-d16
 306              		.type	_exit, %function
 307              	_exit:
 308              	.LFB6:
  49:sys/stubs.c   **** 
  50:sys/stubs.c   **** void _exit(int status)
  51:sys/stubs.c   **** {
 309              		.loc 1 51 0
 310              		.cfi_startproc
 311              		@ args = 0, pretend = 0, frame = 8
 312              		@ frame_needed = 1, uses_anonymous_args = 0
 313              		@ link register save eliminated.
 314 0000 80B4     		push	{r7}
 315              		.cfi_def_cfa_offset 4
 316              		.cfi_offset 7, -4
 317 0002 83B0     		sub	sp, sp, #12
 318              		.cfi_def_cfa_offset 16
 319 0004 00AF     		add	r7, sp, #0
 320              		.cfi_def_cfa_register 7
 321 0006 7860     		str	r0, [r7, #4]
  52:sys/stubs.c   **** }
 322              		.loc 1 52 0
 323 0008 00BF     		nop
 324 000a 0C37     		adds	r7, r7, #12
 325              		.cfi_def_cfa_offset 4
 326 000c BD46     		mov	sp, r7
 327              		.cfi_def_cfa_register 13
 328              		@ sp needed
 329 000e 5DF8047B 		ldr	r7, [sp], #4
 330              		.cfi_restore 7
 331              		.cfi_def_cfa_offset 0
 332 0012 7047     		bx	lr
 333              		.cfi_endproc
 334              	.LFE6:
 335              		.size	_exit, .-_exit
 336              		.weak	__io_getchar
 337              		.weak	__io_putchar
 338              		.text
 339              	.Letext0: